target datalayout = "e-m:e-p270:32:32-p271:32:32-p272:64:64-i64:64-i128:128-f80:128-n8:16:32:64-S128"
target triple = "x86_64-pc-linux-gnu"

%struct.saucy = type { i32, ptr, ptr, ptr, ptr, %struct.coloring, %struct.coloring, ptr, ptr, ptr, ptr, ptr, i32, i32, ptr, i32, ptr, ptr, ptr, ptr, ptr, ptr, ptr, i32, i32, ptr, i32, ptr, i32, i32, ptr, ptr, ptr, ptr, ptr, ptr, ptr, ptr, ptr, ptr, i32, ptr, ptr, ptr, i32, ptr, i32, ptr, ptr, ptr, ptr, i32, ptr, ptr, i32, ptr, ptr, ptr, ptr, ptr, ptr, ptr, ptr, ptr, ptr, ptr, ptr, ptr, ptr, ptr, ptr, ptr, ptr, ptr, ptr, ptr, ptr, double, i32, i32, i32, ptr, ptr, ptr, ptr }
%struct.coloring = type { ptr, ptr, ptr, ptr }
%struct.Abc_Ntk_t_ = type { i32, i32, ptr, ptr, ptr, ptr, ptr, ptr, ptr, ptr, ptr, ptr, ptr, [11 x i32], i32, i32, i32, i32, ptr, i32, ptr, ptr, i32, i32, i32, double, i32, %struct.Vec_Int_t_, ptr, ptr, ptr, ptr, ptr, float, i32, ptr, ptr, ptr, ptr, ptr, ptr, ptr, ptr, ptr, ptr, ptr, ptr, ptr, ptr, ptr, ptr, ptr, ptr, ptr, ptr, ptr }
%struct.Vec_Int_t_ = type { i32, i32, ptr }
%struct.Vec_Ptr_t_ = type { i32, i32, ptr }

; Function Attrs: nounwind uwtable
define internal i32 @Vec_PtrSize(ptr noundef %0) #0 {
  %2 = alloca ptr, align 8
  store ptr %0, ptr %2, align 8
  %3 = load ptr, ptr %2, align 8
  %4 = getelementptr inbounds %struct.Vec_Ptr_t_, ptr %3, i32 0, i32 1
  %5 = load i32, ptr %4, align 4
  ret i32 %5
}

; Function Attrs: nounwind uwtable
define internal ptr @Vec_PtrEntry(ptr noundef %0, i32 noundef %1) #0 {
  %3 = alloca ptr, align 8
  %4 = alloca i32, align 4
  store ptr %0, ptr %3, align 8
  store i32 %1, ptr %4, align 4
  %5 = load ptr, ptr %3, align 8
  %6 = getelementptr inbounds %struct.Vec_Ptr_t_, ptr %5, i32 0, i32 2
  %7 = load ptr, ptr %6, align 8
  %8 = load i32, ptr %4, align 4
  %9 = sext i32 %8 to i64
  %10 = getelementptr inbounds ptr, ptr %7, i64 %9
  %11 = load ptr, ptr %10, align 8
  ret ptr %11
}

; Function Attrs: nounwind uwtable
define internal i32 @Abc_NtkBoxNum(ptr noundef %0) #0 {
  %2 = alloca ptr, align 8
  store ptr %0, ptr %2, align 8
  %3 = load ptr, ptr %2, align 8
  %4 = getelementptr inbounds %struct.Abc_Ntk_t_, ptr %3, i32 0, i32 11
  %5 = load ptr, ptr %4, align 8
  %6 = call i32 @Vec_PtrSize(ptr noundef %5)
  ret i32 %6
}

; Function Attrs: nounwind uwtable
define internal i32 @Abc_NtkCoNum(ptr noundef %0) #0 {
  %2 = alloca ptr, align 8
  store ptr %0, ptr %2, align 8
  %3 = load ptr, ptr %2, align 8
  %4 = getelementptr inbounds %struct.Abc_Ntk_t_, ptr %3, i32 0, i32 9
  %5 = load ptr, ptr %4, align 8
  %6 = call i32 @Vec_PtrSize(ptr noundef %5)
  ret i32 %6
}

; Function Attrs: nounwind uwtable
define internal i32 @Abc_NtkCiNum(ptr noundef %0) #0 {
  %2 = alloca ptr, align 8
  store ptr %0, ptr %2, align 8
  %3 = load ptr, ptr %2, align 8
  %4 = getelementptr inbounds %struct.Abc_Ntk_t_, ptr %3, i32 0, i32 8
  %5 = load ptr, ptr %4, align 8
  %6 = call i32 @Vec_PtrSize(ptr noundef %5)
  ret i32 %6
}

; Function Attrs: nounwind uwtable
define internal i32 @Abc_NtkPoNum(ptr noundef %0) #0 {
  %2 = alloca ptr, align 8
  store ptr %0, ptr %2, align 8
  %3 = load ptr, ptr %2, align 8
  %4 = getelementptr inbounds %struct.Abc_Ntk_t_, ptr %3, i32 0, i32 7
  %5 = load ptr, ptr %4, align 8
  %6 = call i32 @Vec_PtrSize(ptr noundef %5)
  ret i32 %6
}

; Function Attrs: nounwind uwtable
define void @prepare_permutation_ntk(ptr noundef %0) #0 {
  %2 = alloca ptr, align 8
  %3 = alloca i32, align 4
  %4 = alloca ptr, align 8
  %5 = alloca ptr, align 8
  %6 = alloca i32, align 4
  store ptr %0, ptr %2, align 8
  %7 = load ptr, ptr %2, align 8
  %8 = getelementptr inbounds %struct.saucy, ptr %7, i32 0, i32 61
  %9 = load ptr, ptr %8, align 8
  %10 = call i32 @Abc_NtkPoNum(ptr noundef %9)
  store i32 %10, ptr %6, align 4
  %11 = load ptr, ptr %2, align 8
  %12 = getelementptr inbounds %struct.saucy, ptr %11, i32 0, i32 62
  %13 = load ptr, ptr %12, align 8
  %14 = getelementptr inbounds %struct.Abc_Ntk_t_, ptr %13, i32 0, i32 4
  %15 = load ptr, ptr %14, align 8
  call void @Nm_ManFree(ptr noundef %15)
  %16 = load ptr, ptr %2, align 8
  %17 = getelementptr inbounds %struct.saucy, ptr %16, i32 0, i32 61
  %18 = load ptr, ptr %17, align 8
  %19 = call i32 @Abc_NtkCiNum(ptr noundef %18)
  %20 = load ptr, ptr %2, align 8
  %21 = getelementptr inbounds %struct.saucy, ptr %20, i32 0, i32 61
  %22 = load ptr, ptr %21, align 8
  %23 = call i32 @Abc_NtkCoNum(ptr noundef %22)
  %24 = add nsw i32 %19, %23
  %25 = load ptr, ptr %2, align 8
  %26 = getelementptr inbounds %struct.saucy, ptr %25, i32 0, i32 61
  %27 = load ptr, ptr %26, align 8
  %28 = call i32 @Abc_NtkBoxNum(ptr noundef %27)
  %29 = add nsw i32 %24, %28
  %30 = call ptr @Nm_ManCreate(i32 noundef %29)
  %31 = load ptr, ptr %2, align 8
  %32 = getelementptr inbounds %struct.saucy, ptr %31, i32 0, i32 62
  %33 = load ptr, ptr %32, align 8
  %34 = getelementptr inbounds %struct.Abc_Ntk_t_, ptr %33, i32 0, i32 4
  store ptr %30, ptr %34, align 8
  store i32 0, ptr %3, align 4
  br label %35

35:                                               ; preds = %96, %1
  %36 = load i32, ptr %3, align 4
  %37 = load ptr, ptr %2, align 8
  %38 = getelementptr inbounds %struct.saucy, ptr %37, i32 0, i32 0
  %39 = load i32, ptr %38, align 8
  %40 = icmp slt i32 %36, %39
  br i1 %40, label %41, label %99

41:                                               ; preds = %35
  %42 = load i32, ptr %3, align 4
  %43 = load i32, ptr %6, align 4
  %44 = icmp slt i32 %42, %43
  br i1 %44, label %45, label %66

45:                                               ; preds = %41
  %46 = load ptr, ptr %2, align 8
  %47 = getelementptr inbounds %struct.saucy, ptr %46, i32 0, i32 61
  %48 = load ptr, ptr %47, align 8
  %49 = getelementptr inbounds %struct.Abc_Ntk_t_, ptr %48, i32 0, i32 7
  %50 = load ptr, ptr %49, align 8
  %51 = load i32, ptr %3, align 4
  %52 = call ptr @Vec_PtrEntry(ptr noundef %50, i32 noundef %51)
  store ptr %52, ptr %4, align 8
  %53 = load ptr, ptr %2, align 8
  %54 = getelementptr inbounds %struct.saucy, ptr %53, i32 0, i32 62
  %55 = load ptr, ptr %54, align 8
  %56 = getelementptr inbounds %struct.Abc_Ntk_t_, ptr %55, i32 0, i32 7
  %57 = load ptr, ptr %56, align 8
  %58 = load ptr, ptr %2, align 8
  %59 = getelementptr inbounds %struct.saucy, ptr %58, i32 0, i32 21
  %60 = load ptr, ptr %59, align 8
  %61 = load i32, ptr %3, align 4
  %62 = sext i32 %61 to i64
  %63 = getelementptr inbounds i32, ptr %60, i64 %62
  %64 = load i32, ptr %63, align 4
  %65 = call ptr @Vec_PtrEntry(ptr noundef %57, i32 noundef %64)
  store ptr %65, ptr %5, align 8
  br label %91

66:                                               ; preds = %41
  %67 = load ptr, ptr %2, align 8
  %68 = getelementptr inbounds %struct.saucy, ptr %67, i32 0, i32 61
  %69 = load ptr, ptr %68, align 8
  %70 = getelementptr inbounds %struct.Abc_Ntk_t_, ptr %69, i32 0, i32 6
  %71 = load ptr, ptr %70, align 8
  %72 = load i32, ptr %3, align 4
  %73 = load i32, ptr %6, align 4
  %74 = sub nsw i32 %72, %73
  %75 = call ptr @Vec_PtrEntry(ptr noundef %71, i32 noundef %74)
  store ptr %75, ptr %4, align 8
  %76 = load ptr, ptr %2, align 8
  %77 = getelementptr inbounds %struct.saucy, ptr %76, i32 0, i32 62
  %78 = load ptr, ptr %77, align 8
  %79 = getelementptr inbounds %struct.Abc_Ntk_t_, ptr %78, i32 0, i32 6
  %80 = load ptr, ptr %79, align 8
  %81 = load ptr, ptr %2, align 8
  %82 = getelementptr inbounds %struct.saucy, ptr %81, i32 0, i32 21
  %83 = load ptr, ptr %82, align 8
  %84 = load i32, ptr %3, align 4
  %85 = sext i32 %84 to i64
  %86 = getelementptr inbounds i32, ptr %83, i64 %85
  %87 = load i32, ptr %86, align 4
  %88 = load i32, ptr %6, align 4
  %89 = sub nsw i32 %87, %88
  %90 = call ptr @Vec_PtrEntry(ptr noundef %80, i32 noundef %89)
  store ptr %90, ptr %5, align 8
  br label %91

91:                                               ; preds = %66, %45
  %92 = load ptr, ptr %5, align 8
  %93 = load ptr, ptr %4, align 8
  %94 = call ptr @Abc_ObjName(ptr noundef %93)
  %95 = call ptr @Abc_ObjAssignName(ptr noundef %92, ptr noundef %94, ptr noundef null)
  br label %96

96:                                               ; preds = %91
  %97 = load i32, ptr %3, align 4
  %98 = add nsw i32 %97, 1
  store i32 %98, ptr %3, align 4
  br label %35, !llvm.loop !4

99:                                               ; preds = %35
  %100 = load ptr, ptr %2, align 8
  %101 = getelementptr inbounds %struct.saucy, ptr %100, i32 0, i32 62
  %102 = load ptr, ptr %101, align 8
  call void @Abc_NtkOrderObjsByName(ptr noundef %102, i32 noundef 1)
  ret void
}