; Function Attrs: nounwind uwtable
define void @prepare_permutation_ntk(ptr noundef readonly captures(none) %0) local_unnamed_addr #0 {
  %2 = getelementptr inbounds nuw i8, ptr %0, i64 512
  %3 = load ptr, ptr %2, align 8
  %4 = getelementptr i8, ptr %3, i64 48
  %.val = load ptr, ptr %4, align 8
  %5 = getelementptr i8, ptr %.val, i64 4
  %.val.val = load i32, ptr %5, align 4
  %6 = getelementptr inbounds nuw i8, ptr %0, i64 520
  %7 = load ptr, ptr %6, align 8
  %8 = getelementptr inbounds nuw i8, ptr %7, i64 24
  %9 = load ptr, ptr %8, align 8
  tail call void @Nm_ManFree(ptr noundef %9) #24
  %10 = load ptr, ptr %2, align 8
  %11 = getelementptr i8, ptr %10, i64 56
  %.val28 = load ptr, ptr %11, align 8
  %12 = getelementptr i8, ptr %.val28, i64 4
  %.val28.val = load i32, ptr %12, align 4
  %13 = getelementptr i8, ptr %10, i64 64
  %.val29 = load ptr, ptr %13, align 8
  %14 = getelementptr i8, ptr %.val29, i64 4
  %.val29.val = load i32, ptr %14, align 4
  %15 = add nsw i32 %.val29.val, %.val28.val
  %16 = getelementptr i8, ptr %10, i64 80
  %.val30 = load ptr, ptr %16, align 8
  %17 = getelementptr i8, ptr %.val30, i64 4
  %.val30.val = load i32, ptr %17, align 4
  %18 = add nsw i32 %15, %.val30.val
  %19 = tail call ptr @Nm_ManCreate(i32 noundef %18) #24
  %20 = load ptr, ptr %6, align 8
  %21 = getelementptr inbounds nuw i8, ptr %20, i64 24
  store ptr %19, ptr %21, align 8
  %22 = load i32, ptr %0, align 8
  %23 = icmp sgt i32 %22, 0
  br i1 %23, label %.lr.ph, label %._crit_edge

.lr.ph:                                           ; preds = %1
  %24 = getelementptr inbounds nuw i8, ptr %0, i64 208
  %25 = sext i32 %.val.val to i64
  br label %26

26:                                               ; preds = %.lr.ph, %51
  %indvars.iv = phi i64 [ 0, %.lr.ph ], [ %indvars.iv.next, %51 ]
  %27 = icmp slt i64 %indvars.iv, %25
  %28 = load ptr, ptr %2, align 8
  br i1 %27, label %29, label %39

29:                                               ; preds = %26
  %30 = getelementptr inbounds nuw i8, ptr %28, i64 48
  %31 = load ptr, ptr %30, align 8
  %32 = getelementptr i8, ptr %31, i64 8
  %.val31 = load ptr, ptr %32, align 8
  %33 = getelementptr inbounds nuw ptr, ptr %.val31, i64 %indvars.iv
  %34 = load ptr, ptr %6, align 8
  %35 = getelementptr inbounds nuw i8, ptr %34, i64 48
  %36 = load ptr, ptr %24, align 8
  %37 = getelementptr inbounds nuw i32, ptr %36, i64 %indvars.iv
  %38 = load i32, ptr %37, align 4
  br label %51

39:                                               ; preds = %26
  %40 = getelementptr inbounds nuw i8, ptr %28, i64 40
  %41 = load ptr, ptr %40, align 8
  %42 = sub nsw i64 %indvars.iv, %25
  %43 = getelementptr i8, ptr %41, i64 8
  %.val33 = load ptr, ptr %43, align 8
  %44 = getelementptr inbounds ptr, ptr %.val33, i64 %42
  %45 = load ptr, ptr %6, align 8
  %46 = getelementptr inbounds nuw i8, ptr %45, i64 40
  %47 = load ptr, ptr %24, align 8
  %48 = getelementptr inbounds nuw i32, ptr %47, i64 %indvars.iv
  %49 = load i32, ptr %48, align 4
  %50 = sub nsw i32 %49, %.val.val
  br label %51

51:                                               ; preds = %39, %29
  %.sink38.in = phi ptr [ %46, %39 ], [ %35, %29 ]
  %.sink37 = phi i32 [ %50, %39 ], [ %38, %29 ]
  %.026.in = phi ptr [ %44, %39 ], [ %33, %29 ]
  %.sink38 = load ptr, ptr %.sink38.in, align 8
  %52 = getelementptr i8, ptr %.sink38, i64 8
  %.val34 = load ptr, ptr %52, align 8
  %53 = sext i32 %.sink37 to i64
  %54 = getelementptr inbounds ptr, ptr %.val34, i64 %53
  %.025 = load ptr, ptr %54, align 8
  %.026 = load ptr, ptr %.026.in, align 8
  %55 = tail call ptr @Abc_ObjName(ptr noundef %.026) #24
  %56 = tail call ptr @Abc_ObjAssignName(ptr noundef %.025, ptr noundef %55, ptr noundef null) #24
  %indvars.iv.next = add nuw nsw i64 %indvars.iv, 1
  %57 = load i32, ptr %0, align 8
  %58 = sext i32 %57 to i64
  %59 = icmp slt i64 %indvars.iv.next, %58
  br i1 %59, label %26, label %._crit_edge, !llvm.loop !4

._crit_edge:                                      ; preds = %51, %1
  %60 = load ptr, ptr %6, align 8
  tail call void @Abc_NtkOrderObjsByName(ptr noundef %60, i32 noundef 1) #24
  ret void
}